target datalayout = "e-m:e-p270:32:32-p271:32:32-p272:64:64-i64:64-i128:128-f80:128-n8:16:32:64-S128"
target triple = "x86_64-unknown-linux-gnu"

%"class.icu_75::UObject" = type { ptr }
%"class.icu_75::UnicodeString" = type { %"class.icu_75::Replaceable", %"union.icu_75::UnicodeString::StackBufferOrFields" }
%"class.icu_75::Replaceable" = type { %"class.icu_75::UObject" }
%"union.icu_75::UnicodeString::StackBufferOrFields" = type { %struct.anon.0, [32 x i8] }
%struct.anon.0 = type { i16, i32, i32, ptr }
%"class.icu_75::Char16Ptr" = type { ptr }
%struct.anon = type { i16, [27 x i16] }

@_ZTIN6icu_7512NumberFormatE = external constant ptr
@_ZTIN6icu_7513DecimalFormatE = external constant ptr
@_ZTIN6icu_7521RuleBasedNumberFormatE = external constant ptr
@_ZTVN6icu_7513UnicodeStringE = external unnamed_addr constant { [13 x ptr] }, align 8
@_ZTVN6icu_7511ReplaceableE = external unnamed_addr constant { [13 x ptr] }, align 8
@_ZTVN6icu_757UObjectE = external unnamed_addr constant { [5 x ptr] }, align 8

; Function Attrs: mustprogress nounwind uwtable
define linkonce_odr void @_ZN6icu_757UObjectC2Ev(ptr noundef nonnull align 8 dereferenceable(8) %this) unnamed_addr #1 comdat align 2 {
entry:
  %this.addr = alloca ptr, align 8
  store ptr %this, ptr %this.addr, align 8
  %this1 = load ptr, ptr %this.addr, align 8
  store ptr getelementptr inbounds ({ [5 x ptr] }, ptr @_ZTVN6icu_757UObjectE, i32 0, i32 0, i32 2), ptr %this1, align 8
  ret void
}

; Function Attrs: mustprogress nounwind uwtable
define linkonce_odr void @_ZN6icu_7511ReplaceableC2Ev(ptr noundef nonnull align 8 dereferenceable(8) %this) unnamed_addr #1 comdat align 2 {
entry:
  %this.addr = alloca ptr, align 8
  store ptr %this, ptr %this.addr, align 8
  %this1 = load ptr, ptr %this.addr, align 8
  call void @_ZN6icu_757UObjectC2Ev(ptr noundef nonnull align 8 dereferenceable(8) %this1) #8
  store ptr getelementptr inbounds ({ [13 x ptr] }, ptr @_ZTVN6icu_7511ReplaceableE, i32 0, i32 0, i32 2), ptr %this1, align 8
  ret void
}

; Function Attrs: mustprogress nounwind uwtable
define linkonce_odr void @_ZN6icu_759Char16PtrD2Ev(ptr noundef nonnull align 8 dereferenceable(8) %this) unnamed_addr #1 comdat align 2 {
entry:
  %this.addr = alloca ptr, align 8
  store ptr %this, ptr %this.addr, align 8
  %this1 = load ptr, ptr %this.addr, align 8
  %p_ = getelementptr inbounds %"class.icu_75::Char16Ptr", ptr %this1, i32 0, i32 0
  %0 = load ptr, ptr %p_, align 8
  call void asm sideeffect "", "rm,~{memory},~{dirflag},~{fpsr},~{flags}"(ptr %0) #8, !srcloc !4
  ret void
}

; Function Attrs: mustprogress nounwind uwtable
define linkonce_odr void @_ZN6icu_759Char16PtrC2EPDs(ptr noundef nonnull align 8 dereferenceable(8) %this, ptr noundef %p) unnamed_addr #1 comdat align 2 {
entry:
  %this.addr = alloca ptr, align 8
  %p.addr = alloca ptr, align 8
  store ptr %this, ptr %this.addr, align 8
  store ptr %p, ptr %p.addr, align 8
  %this1 = load ptr, ptr %this.addr, align 8
  %p_ = getelementptr inbounds %"class.icu_75::Char16Ptr", ptr %this1, i32 0, i32 0
  %0 = load ptr, ptr %p.addr, align 8
  store ptr %0, ptr %p_, align 8
  ret void
}

; Function Attrs: mustprogress uwtable
define linkonce_odr void @_ZN6icu_7513UnicodeStringC2Ev(ptr noundef nonnull align 8 dereferenceable(64) %this) unnamed_addr #0 comdat align 2 {
entry:
  %this.addr = alloca ptr, align 8
  store ptr %this, ptr %this.addr, align 8
  %this1 = load ptr, ptr %this.addr, align 8
  call void @_ZN6icu_7511ReplaceableC2Ev(ptr noundef nonnull align 8 dereferenceable(8) %this1)
  store ptr getelementptr inbounds ({ [13 x ptr] }, ptr @_ZTVN6icu_7513UnicodeStringE, i32 0, i32 0, i32 2), ptr %this1, align 8
  %fUnion2 = getelementptr inbounds %"class.icu_75::UnicodeString", ptr %this1, i32 0, i32 1
  %fLengthAndFlags = getelementptr inbounds %struct.anon, ptr %fUnion2, i32 0, i32 0
  store i16 2, ptr %fLengthAndFlags, align 8
  ret void
}

; Function Attrs: mustprogress nounwind uwtable
define internal noundef signext i8 @_ZL9U_FAILURE10UErrorCode(i32 noundef %code) #1 {
entry:
  %code.addr = alloca i32, align 4
  store i32 %code, ptr %code.addr, align 4
  %0 = load i32, ptr %code.addr, align 4
  %cmp = icmp sgt i32 %0, 0
  %conv = zext i1 %cmp to i8
  ret i8 %conv
}

; Function Attrs: mustprogress uwtable
define i32 @unum_toPattern_75(ptr noundef %fmt, i8 noundef signext %isPatternLocalized, ptr noundef %result, i32 noundef %resultLength, ptr noundef %status) #0 personality ptr @__gxx_personality_v0 {
entry:
  %retval = alloca i32, align 4
  %fmt.addr = alloca ptr, align 8
  %isPatternLocalized.addr = alloca i8, align 1
  %result.addr = alloca ptr, align 8
  %resultLength.addr = alloca i32, align 4
  %status.addr = alloca ptr, align 8
  %pat = alloca %"class.icu_75::UnicodeString", align 8
  %exn.slot = alloca ptr, align 8
  %ehselector.slot = alloca i32, align 4
  %nf = alloca ptr, align 8
  %df = alloca ptr, align 8
  %rbnf = alloca ptr, align 8
  %ref.tmp = alloca %"class.icu_75::UnicodeString", align 8
  %agg.tmp = alloca %"class.icu_75::Char16Ptr", align 8
  store ptr %fmt, ptr %fmt.addr, align 8
  store i8 %isPatternLocalized, ptr %isPatternLocalized.addr, align 1
  store ptr %result, ptr %result.addr, align 8
  store i32 %resultLength, ptr %resultLength.addr, align 4
  store ptr %status, ptr %status.addr, align 8
  %0 = load ptr, ptr %status.addr, align 8
  %1 = load i32, ptr %0, align 4
  %call = call noundef signext i8 @_ZL9U_FAILURE10UErrorCode(i32 noundef %1)
  %tobool = icmp ne i8 %call, 0
  br i1 %tobool, label %if.then, label %if.end

if.then:                                          ; preds = %entry
  store i32 -1, ptr %retval, align 4
  br label %return

if.end:                                           ; preds = %entry
  call void @_ZN6icu_7513UnicodeStringC2Ev(ptr noundef nonnull align 8 dereferenceable(64) %pat)
  %2 = load ptr, ptr %result.addr, align 8
  %cmp = icmp eq ptr %2, null
  br i1 %cmp, label %land.lhs.true, label %if.then2

land.lhs.true:                                    ; preds = %if.end
  %3 = load i32, ptr %resultLength.addr, align 4
  %cmp1 = icmp eq i32 %3, 0
  br i1 %cmp1, label %if.end4, label %if.then2

if.then2:                                         ; preds = %land.lhs.true, %if.end
  %4 = load ptr, ptr %result.addr, align 8
  %5 = load i32, ptr %resultLength.addr, align 4
  %call3 = invoke noundef nonnull align 8 dereferenceable(64) ptr @_ZN6icu_7513UnicodeString5setToEPDsii(ptr noundef nonnull align 8 dereferenceable(64) %pat, ptr noundef %4, i32 noundef 0, i32 noundef %5)
          to label %invoke.cont unwind label %lpad

invoke.cont:                                      ; preds = %if.then2
  br label %if.end4

lpad:                                             ; preds = %if.end28, %if.then21, %if.else, %if.then8, %if.then2
  %6 = landingpad { ptr, i32 }
          cleanup
  %7 = extractvalue { ptr, i32 } %6, 0
  store ptr %7, ptr %exn.slot, align 8
  %8 = extractvalue { ptr, i32 } %6, 1
  store i32 %8, ptr %ehselector.slot, align 4
  br label %ehcleanup

if.end4:                                          ; preds = %invoke.cont, %land.lhs.true
  %9 = load ptr, ptr %fmt.addr, align 8
  store ptr %9, ptr %nf, align 8
  %10 = load ptr, ptr %nf, align 8
  %11 = icmp eq ptr %10, null
  br i1 %11, label %dynamic_cast.null, label %dynamic_cast.notnull

dynamic_cast.notnull:                             ; preds = %if.end4
  %12 = call ptr @__dynamic_cast(ptr %10, ptr @_ZTIN6icu_7512NumberFormatE, ptr @_ZTIN6icu_7513DecimalFormatE, i64 0) #8
  br label %dynamic_cast.end

dynamic_cast.null:                                ; preds = %if.end4
  br label %dynamic_cast.end

dynamic_cast.end:                                 ; preds = %dynamic_cast.null, %dynamic_cast.notnull
  %13 = phi ptr [ %12, %dynamic_cast.notnull ], [ null, %dynamic_cast.null ]
  store ptr %13, ptr %df, align 8
  store ptr null, ptr %rbnf, align 8
  %14 = load ptr, ptr %df, align 8
  %cmp5 = icmp ne ptr %14, null
  br i1 %cmp5, label %if.then6, label %if.else16

if.then6:                                         ; preds = %dynamic_cast.end
  %15 = load i8, ptr %isPatternLocalized.addr, align 1
  %tobool7 = icmp ne i8 %15, 0
  br i1 %tobool7, label %if.then8, label %if.else

if.then8:                                         ; preds = %if.then6
  %16 = load ptr, ptr %df, align 8
  %vtable = load ptr, ptr %16, align 8
  %vfn = getelementptr inbounds ptr, ptr %vtable, i64 69
  %17 = load ptr, ptr %vfn, align 8
  %call10 = invoke noundef nonnull align 8 dereferenceable(64) ptr %17(ptr noundef nonnull align 8 dereferenceable(368) %16, ptr noundef nonnull align 8 dereferenceable(64) %pat)
          to label %invoke.cont9 unwind label %lpad

invoke.cont9:                                     ; preds = %if.then8
  br label %if.end15

if.else:                                          ; preds = %if.then6
  %18 = load ptr, ptr %df, align 8
  %vtable11 = load ptr, ptr %18, align 8
  %vfn12 = getelementptr inbounds ptr, ptr %vtable11, i64 68
  %19 = load ptr, ptr %vfn12, align 8
  %call14 = invoke noundef nonnull align 8 dereferenceable(64) ptr %19(ptr noundef nonnull align 8 dereferenceable(368) %18, ptr noundef nonnull align 8 dereferenceable(64) %pat)
          to label %invoke.cont13 unwind label %lpad

invoke.cont13:                                    ; preds = %if.else
  br label %if.end15

if.end15:                                         ; preds = %invoke.cont13, %invoke.cont9
  br label %if.end28

if.else16:                                        ; preds = %dynamic_cast.end
  %20 = load ptr, ptr %nf, align 8
  %21 = icmp eq ptr %20, null
  br i1 %21, label %dynamic_cast.null18, label %dynamic_cast.notnull17

dynamic_cast.notnull17:                           ; preds = %if.else16
  %22 = call ptr @__dynamic_cast(ptr %20, ptr @_ZTIN6icu_7512NumberFormatE, ptr @_ZTIN6icu_7521RuleBasedNumberFormatE, i64 0) #8
  br label %dynamic_cast.end19

dynamic_cast.null18:                              ; preds = %if.else16
  br label %dynamic_cast.end19

dynamic_cast.end19:                               ; preds = %dynamic_cast.null18, %dynamic_cast.notnull17
  %23 = phi ptr [ %22, %dynamic_cast.notnull17 ], [ null, %dynamic_cast.null18 ]
  store ptr %23, ptr %rbnf, align 8
  %cmp20 = icmp ne ptr %23, null
  br i1 %cmp20, label %if.then21, label %if.else26

if.then21:                                        ; preds = %dynamic_cast.end19
  %24 = load ptr, ptr %rbnf, align 8
  %vtable22 = load ptr, ptr %24, align 8
  %vfn23 = getelementptr inbounds ptr, ptr %vtable22, i64 37
  %25 = load ptr, ptr %vfn23, align 8
  invoke void %25(ptr sret(%"class.icu_75::UnicodeString") align 8 %ref.tmp, ptr noundef nonnull align 8 dereferenceable(752) %24)
          to label %invoke.cont24 unwind label %lpad

invoke.cont24:                                    ; preds = %if.then21
  %call25 = call noundef nonnull align 8 dereferenceable(64) ptr @_ZN6icu_7513UnicodeStringaSEOS0_(ptr noundef nonnull align 8 dereferenceable(64) %pat, ptr noundef nonnull align 8 dereferenceable(64) %ref.tmp) #8
  call void @_ZN6icu_7513UnicodeStringD1Ev(ptr noundef nonnull align 8 dereferenceable(64) %ref.tmp) #8
  br label %if.end27

if.else26:                                        ; preds = %dynamic_cast.end19
  br label %if.end27

if.end27:                                         ; preds = %if.else26, %invoke.cont24
  br label %if.end28

if.end28:                                         ; preds = %if.end27, %if.end15
  %26 = load ptr, ptr %result.addr, align 8
  invoke void @_ZN6icu_759Char16PtrC2EPDs(ptr noundef nonnull align 8 dereferenceable(8) %agg.tmp, ptr noundef %26)
          to label %invoke.cont29 unwind label %lpad

invoke.cont29:                                    ; preds = %if.end28
  %27 = load i32, ptr %resultLength.addr, align 4
  %28 = load ptr, ptr %status.addr, align 8
  %call32 = invoke noundef i32 @_ZNK6icu_7513UnicodeString7extractENS_9Char16PtrEiR10UErrorCode(ptr noundef nonnull align 8 dereferenceable(64) %pat, ptr noundef %agg.tmp, i32 noundef %27, ptr noundef nonnull align 4 dereferenceable(4) %28)
          to label %invoke.cont31 unwind label %lpad30

invoke.cont31:                                    ; preds = %invoke.cont29
  store i32 %call32, ptr %retval, align 4
  call void @_ZN6icu_759Char16PtrD2Ev(ptr noundef nonnull align 8 dereferenceable(8) %agg.tmp) #8
  call void @_ZN6icu_7513UnicodeStringD1Ev(ptr noundef nonnull align 8 dereferenceable(64) %pat) #8
  br label %return

lpad30:                                           ; preds = %invoke.cont29
  %29 = landingpad { ptr, i32 }
          cleanup
  %30 = extractvalue { ptr, i32 } %29, 0
  store ptr %30, ptr %exn.slot, align 8
  %31 = extractvalue { ptr, i32 } %29, 1
  store i32 %31, ptr %ehselector.slot, align 4
  call void @_ZN6icu_759Char16PtrD2Ev(ptr noundef nonnull align 8 dereferenceable(8) %agg.tmp) #8
  br label %ehcleanup

ehcleanup:                                        ; preds = %lpad30, %lpad
  call void @_ZN6icu_7513UnicodeStringD1Ev(ptr noundef nonnull align 8 dereferenceable(64) %pat) #8
  br label %eh.resume

return:                                           ; preds = %invoke.cont31, %if.then
  %32 = load i32, ptr %retval, align 4
  ret i32 %32

eh.resume:                                        ; preds = %ehcleanup
  %exn = load ptr, ptr %exn.slot, align 8
  %sel = load i32, ptr %ehselector.slot, align 4
  %lpad.val = insertvalue { ptr, i32 } poison, ptr %exn, 0
  %lpad.val33 = insertvalue { ptr, i32 } %lpad.val, i32 %sel, 1
  resume { ptr, i32 } %lpad.val33
}