; Function Attrs: mustprogress uwtable
define noundef i32 @unum_toPattern_75(ptr noundef %fmt, i8 noundef signext %isPatternLocalized, ptr noundef %result, i32 noundef %resultLength, ptr noundef %status) local_unnamed_addr #0 personality ptr @__gxx_personality_v0 {
entry:
  %pat = alloca %"class.icu_75::UnicodeString", align 8
  %ref.tmp = alloca %"class.icu_75::UnicodeString", align 8
  %agg.tmp = alloca %"class.icu_75::Char16Ptr", align 8
  %0 = load i32, ptr %status, align 4
  %cmp.i = icmp slt i32 %0, 1
  br i1 %cmp.i, label %if.end, label %return

if.end:                                           ; preds = %entry
  store ptr getelementptr inbounds ({ [13 x ptr] }, ptr @_ZTVN6icu_7513UnicodeStringE, i64 0, i32 0, i64 2), ptr %pat, align 8
  %fUnion2.i = getelementptr inbounds i8, ptr %pat, i64 8
  store i16 2, ptr %fUnion2.i, align 8
  %cmp = icmp eq ptr %result, null
  %cmp1 = icmp eq i32 %resultLength, 0
  %or.cond = and i1 %cmp, %cmp1
  br i1 %or.cond, label %if.end4, label %if.then2

if.then2:                                         ; preds = %if.end
  %call3 = invoke noundef nonnull align 8 dereferenceable(64) ptr @_ZN6icu_7513UnicodeString5setToEPDsii(ptr noundef nonnull align 8 dereferenceable(64) %pat, ptr noundef %result, i32 noundef 0, i32 noundef %resultLength)
          to label %if.end4 unwind label %lpad

lpad:                                             ; preds = %if.then6, %if.then21, %if.then2
  %1 = landingpad { ptr, i32 }
          cleanup
  br label %ehcleanup

if.end4:                                          ; preds = %if.then2, %if.end
  %2 = icmp eq ptr %fmt, null
  br i1 %2, label %if.end28, label %dynamic_cast.end

dynamic_cast.end:                                 ; preds = %if.end4
  %3 = call ptr @__dynamic_cast(ptr nonnull %fmt, ptr nonnull @_ZTIN6icu_7512NumberFormatE, ptr nonnull @_ZTIN6icu_7513DecimalFormatE, i64 0) #10
  %cmp5.not = icmp eq ptr %3, null
  br i1 %cmp5.not, label %dynamic_cast.end19, label %if.then6

if.then6:                                         ; preds = %dynamic_cast.end
  %tobool7.not = icmp eq i8 %isPatternLocalized, 0
  %vtable11 = load ptr, ptr %3, align 8
  %. = select i1 %tobool7.not, i64 544, i64 552
  %vfn = getelementptr inbounds i8, ptr %vtable11, i64 %.
  %4 = load ptr, ptr %vfn, align 8
  %5 = invoke noundef nonnull align 8 dereferenceable(64) ptr %4(ptr noundef nonnull align 8 dereferenceable(368) %3, ptr noundef nonnull align 8 dereferenceable(64) %pat)
          to label %if.end28 unwind label %lpad

dynamic_cast.end19:                               ; preds = %dynamic_cast.end
  %6 = call ptr @__dynamic_cast(ptr nonnull %fmt, ptr nonnull @_ZTIN6icu_7512NumberFormatE, ptr nonnull @_ZTIN6icu_7521RuleBasedNumberFormatE, i64 0) #10
  %cmp20.not = icmp eq ptr %6, null
  br i1 %cmp20.not, label %if.end28, label %if.then21

if.then21:                                        ; preds = %dynamic_cast.end19
  %vtable22 = load ptr, ptr %6, align 8
  %vfn23 = getelementptr inbounds i8, ptr %vtable22, i64 296
  %7 = load ptr, ptr %vfn23, align 8
  invoke void %7(ptr nonnull sret(%"class.icu_75::UnicodeString") align 8 %ref.tmp, ptr noundef nonnull align 8 dereferenceable(752) %6)
          to label %invoke.cont24 unwind label %lpad

invoke.cont24:                                    ; preds = %if.then21
  %call25 = call noundef nonnull align 8 dereferenceable(64) ptr @_ZN6icu_7513UnicodeStringaSEOS0_(ptr noundef nonnull align 8 dereferenceable(64) %pat, ptr noundef nonnull align 8 dereferenceable(64) %ref.tmp) #10
  call void @_ZN6icu_7513UnicodeStringD1Ev(ptr noundef nonnull align 8 dereferenceable(64) %ref.tmp) #10
  br label %if.end28

if.end28:                                         ; preds = %if.then6, %if.end4, %invoke.cont24, %dynamic_cast.end19
  store ptr %result, ptr %agg.tmp, align 8
  %call32 = invoke noundef i32 @_ZNK6icu_7513UnicodeString7extractENS_9Char16PtrEiR10UErrorCode(ptr noundef nonnull align 8 dereferenceable(64) %pat, ptr noundef nonnull %agg.tmp, i32 noundef %resultLength, ptr noundef nonnull align 4 dereferenceable(4) %status)
          to label %invoke.cont31 unwind label %lpad30

invoke.cont31:                                    ; preds = %if.end28
  %8 = load ptr, ptr %agg.tmp, align 8
  call void asm sideeffect "", "rm,~{memory},~{dirflag},~{fpsr},~{flags}"(ptr %8) #10, !srcloc !4
  call void @_ZN6icu_7513UnicodeStringD1Ev(ptr noundef nonnull align 8 dereferenceable(64) %pat) #10
  br label %return

lpad30:                                           ; preds = %if.end28
  %9 = landingpad { ptr, i32 }
          cleanup
  %10 = load ptr, ptr %agg.tmp, align 8
  call void asm sideeffect "", "rm,~{memory},~{dirflag},~{fpsr},~{flags}"(ptr %10) #10, !srcloc !4
  br label %ehcleanup

ehcleanup:                                        ; preds = %lpad30, %lpad
  %.pn = phi { ptr, i32 } [ %9, %lpad30 ], [ %1, %lpad ]
  call void @_ZN6icu_7513UnicodeStringD1Ev(ptr noundef nonnull align 8 dereferenceable(64) %pat) #10
  resume { ptr, i32 } %.pn

return:                                           ; preds = %entry, %invoke.cont31
  %retval.0 = phi i32 [ %call32, %invoke.cont31 ], [ -1, %entry ]
  ret i32 %retval.0
}